; Function Attrs: mustprogress uwtable
define internal noundef double @_ZNSt17_Function_handlerIFdddEN8QuantLib12_GLOBAL__N_118integalpha_adapterEE9_M_invokeERKSt9_Any_dataOdS8_(ptr nocapture noundef nonnull readonly align 8 dereferenceable(16) %__functor, ptr nocapture noundef nonnull readonly align 8 dereferenceable(8) %__args, ptr nocapture noundef nonnull readonly align 8 dereferenceable(8) %__args1) #8 align 2 personality ptr @__gxx_personality_v0 {
entry:
  %ref.tmp.i.i.i = alloca %"class.QuantLib::InterestRate", align 8
  %ref.tmp3.i.i.i = alloca %"class.QuantLib::InterestRate", align 8
  %__functor.val = load ptr, ptr %__functor, align 8, !tbaa !3
  %__args.val = load double, ptr %__args, align 8, !tbaa !107
  %__args1.val = load double, ptr %__args1, align 8, !tbaa !107
  call void @llvm.lifetime.start.p0(i64 40, ptr nonnull %ref.tmp.i.i.i) #30
  %0 = load ptr, ptr %__functor.val, align 8, !tbaa !93
  %cmp.not.i.i.i.i = icmp eq ptr %0, null
  br i1 %cmp.not.i.i.i.i, label %cond.false.i.i.i.i, label %_ZNK5boost10shared_ptrIN8QuantLib18YieldTermStructureEEptEv.exit.i.i.i, !prof !88

cond.false.i.i.i.i:                               ; preds = %entry
  tail call void @_ZN5boost16assertion_failedEPKcS1_S1_l(ptr noundef nonnull @.str.14, ptr noundef nonnull @__PRETTY_FUNCTION__._ZNK5boost10shared_ptrIN8QuantLib18YieldTermStructureEEptEv, ptr noundef nonnull @.str.15, i64 noundef 784)
  %.pre.i.i.i.i = load ptr, ptr %__functor.val, align 8, !tbaa !93
  br label %_ZNK5boost10shared_ptrIN8QuantLib18YieldTermStructureEEptEv.exit.i.i.i

_ZNK5boost10shared_ptrIN8QuantLib18YieldTermStructureEEptEv.exit.i.i.i: ; preds = %cond.false.i.i.i.i, %entry
  %1 = phi ptr [ %0, %entry ], [ %.pre.i.i.i.i, %cond.false.i.i.i.i ]
  call void @_ZNK8QuantLib18YieldTermStructure11forwardRateEddNS_11CompoundingENS_9FrequencyEb(ptr dead_on_unwind nonnull writable sret(%"class.QuantLib::InterestRate") align 8 %ref.tmp.i.i.i, ptr noundef nonnull align 8 dereferenceable(152) %1, double noundef %__args.val, double noundef %__args1.val, i32 noundef 2, i32 noundef 1, i1 noundef zeroext false)
  %2 = load double, ptr %ref.tmp.i.i.i, align 8, !tbaa !147
  call void @llvm.lifetime.start.p0(i64 40, ptr nonnull %ref.tmp3.i.i.i) #30
  %q.i.i.i = getelementptr inbounds nuw i8, ptr %__functor.val, i64 16
  %3 = load ptr, ptr %q.i.i.i, align 8, !tbaa !93
  %cmp.not.i5.i.i.i = icmp eq ptr %3, null
  br i1 %cmp.not.i5.i.i.i, label %cond.false.i6.i.i.i, label %invoke.cont5.i.i.i, !prof !88

cond.false.i6.i.i.i:                              ; preds = %_ZNK5boost10shared_ptrIN8QuantLib18YieldTermStructureEEptEv.exit.i.i.i
  invoke void @_ZN5boost16assertion_failedEPKcS1_S1_l(ptr noundef nonnull @.str.14, ptr noundef nonnull @__PRETTY_FUNCTION__._ZNK5boost10shared_ptrIN8QuantLib18YieldTermStructureEEptEv, ptr noundef nonnull @.str.15, i64 noundef 784)
          to label %.noexc.i.i.i unwind label %lpad4.i.i.i

.noexc.i.i.i:                                     ; preds = %cond.false.i6.i.i.i
  %.pre.i7.i.i.i = load ptr, ptr %q.i.i.i, align 8, !tbaa !93
  br label %invoke.cont5.i.i.i

invoke.cont5.i.i.i:                               ; preds = %.noexc.i.i.i, %_ZNK5boost10shared_ptrIN8QuantLib18YieldTermStructureEEptEv.exit.i.i.i
  %4 = phi ptr [ %3, %_ZNK5boost10shared_ptrIN8QuantLib18YieldTermStructureEEptEv.exit.i.i.i ], [ %.pre.i7.i.i.i, %.noexc.i.i.i ]
  invoke void @_ZNK8QuantLib18YieldTermStructure11forwardRateEddNS_11CompoundingENS_9FrequencyEb(ptr dead_on_unwind nonnull writable sret(%"class.QuantLib::InterestRate") align 8 %ref.tmp3.i.i.i, ptr noundef nonnull align 8 dereferenceable(152) %4, double noundef %__args.val, double noundef %__args1.val, i32 noundef 2, i32 noundef 1, i1 noundef zeroext false)
          to label %invoke.cont7.i.i.i unwind label %lpad4.i.i.i

invoke.cont7.i.i.i:                               ; preds = %invoke.cont5.i.i.i
  %5 = load double, ptr %ref.tmp3.i.i.i, align 8, !tbaa !147
  %pn.i.i.i.i.i.i = getelementptr inbounds nuw i8, ptr %ref.tmp3.i.i.i, i64 16
  %6 = load ptr, ptr %pn.i.i.i.i.i.i, align 8, !tbaa !37
  %cmp.not.i.i.i.i.i.i.i = icmp eq ptr %6, null
  br i1 %cmp.not.i.i.i.i.i.i.i, label %_ZN8QuantLib12InterestRateD2Ev.exit.i.i.i, label %if.then.i.i.i.i.i.i.i

if.then.i.i.i.i.i.i.i:                            ; preds = %invoke.cont7.i.i.i
  %use_count_.i.i.i.i.i.i.i.i = getelementptr inbounds nuw i8, ptr %6, i64 8
  %7 = atomicrmw sub ptr %use_count_.i.i.i.i.i.i.i.i, i32 1 acq_rel, align 4
  %cmp.i.i.i.i.i.i.i.i = icmp eq i32 %7, 1
  br i1 %cmp.i.i.i.i.i.i.i.i, label %if.then.i.i.i.i.i.i.i.i, label %_ZN8QuantLib12InterestRateD2Ev.exit.i.i.i

if.then.i.i.i.i.i.i.i.i:                          ; preds = %if.then.i.i.i.i.i.i.i
  %vtable.i.i.i.i.i.i.i.i = load ptr, ptr %6, align 8, !tbaa !35
  %vfn.i.i.i.i.i.i.i.i = getelementptr inbounds i8, ptr %vtable.i.i.i.i.i.i.i.i, i64 16
  %8 = load ptr, ptr %vfn.i.i.i.i.i.i.i.i, align 8
  invoke void %8(ptr noundef nonnull align 8 dereferenceable(16) %6)
          to label %.noexc.i.i.i.i.i.i.i unwind label %terminate.lpad.i.i.i.i.i.i.i

.noexc.i.i.i.i.i.i.i:                             ; preds = %if.then.i.i.i.i.i.i.i.i
  %weak_count_.i.i.i.i.i.i.i.i.i = getelementptr inbounds nuw i8, ptr %6, i64 12
  %9 = atomicrmw sub ptr %weak_count_.i.i.i.i.i.i.i.i.i, i32 1 acq_rel, align 4
  %cmp.i.i.i.i.i.i.i.i.i = icmp eq i32 %9, 1
  br i1 %cmp.i.i.i.i.i.i.i.i.i, label %if.then.i.i.i.i.i.i.i.i.i, label %_ZN8QuantLib12InterestRateD2Ev.exit.i.i.i

if.then.i.i.i.i.i.i.i.i.i:                        ; preds = %.noexc.i.i.i.i.i.i.i
  %vtable.i.i.i.i.i.i.i.i.i = load ptr, ptr %6, align 8, !tbaa !35
  %vfn.i.i.i.i.i.i.i.i.i = getelementptr inbounds i8, ptr %vtable.i.i.i.i.i.i.i.i.i, i64 24
  %10 = load ptr, ptr %vfn.i.i.i.i.i.i.i.i.i, align 8
  invoke void %10(ptr noundef nonnull align 8 dereferenceable(16) %6)
          to label %_ZN8QuantLib12InterestRateD2Ev.exit.i.i.i unwind label %terminate.lpad.i.i.i.i.i.i.i

terminate.lpad.i.i.i.i.i.i.i:                     ; preds = %if.then.i.i.i.i.i.i.i.i.i, %if.then.i.i.i.i.i.i.i.i
  %11 = landingpad { ptr, i32 }
          catch ptr null
  %12 = extractvalue { ptr, i32 } %11, 0
  call void @__clang_call_terminate(ptr %12) #31
  unreachable

_ZN8QuantLib12InterestRateD2Ev.exit.i.i.i:        ; preds = %if.then.i.i.i.i.i.i.i.i.i, %.noexc.i.i.i.i.i.i.i, %if.then.i.i.i.i.i.i.i, %invoke.cont7.i.i.i
  call void @llvm.lifetime.end.p0(i64 40, ptr nonnull %ref.tmp3.i.i.i) #30
  %pn.i.i.i9.i.i.i = getelementptr inbounds nuw i8, ptr %ref.tmp.i.i.i, i64 16
  %13 = load ptr, ptr %pn.i.i.i9.i.i.i, align 8, !tbaa !37
  %cmp.not.i.i.i.i10.i.i.i = icmp eq ptr %13, null
  br i1 %cmp.not.i.i.i.i10.i.i.i, label %_ZSt10__invoke_rIdRN8QuantLib12_GLOBAL__N_118integalpha_adapterEJddEENSt9enable_ifIX16is_invocable_r_vIT_T0_DpT1_EES5_E4typeEOS6_DpOS7_.exit, label %if.then.i.i.i.i11.i.i.i

if.then.i.i.i.i11.i.i.i:                          ; preds = %_ZN8QuantLib12InterestRateD2Ev.exit.i.i.i
  %use_count_.i.i.i.i.i12.i.i.i = getelementptr inbounds nuw i8, ptr %13, i64 8
  %14 = atomicrmw sub ptr %use_count_.i.i.i.i.i12.i.i.i, i32 1 acq_rel, align 4
  %cmp.i.i.i.i.i13.i.i.i = icmp eq i32 %14, 1
  br i1 %cmp.i.i.i.i.i13.i.i.i, label %if.then.i.i.i.i.i14.i.i.i, label %_ZSt10__invoke_rIdRN8QuantLib12_GLOBAL__N_118integalpha_adapterEJddEENSt9enable_ifIX16is_invocable_r_vIT_T0_DpT1_EES5_E4typeEOS6_DpOS7_.exit

if.then.i.i.i.i.i14.i.i.i:                        ; preds = %if.then.i.i.i.i11.i.i.i
  %vtable.i.i.i.i.i15.i.i.i = load ptr, ptr %13, align 8, !tbaa !35
  %vfn.i.i.i.i.i16.i.i.i = getelementptr inbounds i8, ptr %vtable.i.i.i.i.i15.i.i.i, i64 16
  %15 = load ptr, ptr %vfn.i.i.i.i.i16.i.i.i, align 8
  invoke void %15(ptr noundef nonnull align 8 dereferenceable(16) %13)
          to label %.noexc.i.i.i.i18.i.i.i unwind label %terminate.lpad.i.i.i.i17.i.i.i

.noexc.i.i.i.i18.i.i.i:                           ; preds = %if.then.i.i.i.i.i14.i.i.i
  %weak_count_.i.i.i.i.i.i19.i.i.i = getelementptr inbounds nuw i8, ptr %13, i64 12
  %16 = atomicrmw sub ptr %weak_count_.i.i.i.i.i.i19.i.i.i, i32 1 acq_rel, align 4
  %cmp.i.i.i.i.i.i20.i.i.i = icmp eq i32 %16, 1
  br i1 %cmp.i.i.i.i.i.i20.i.i.i, label %if.then.i.i.i.i.i.i21.i.i.i, label %_ZSt10__invoke_rIdRN8QuantLib12_GLOBAL__N_118integalpha_adapterEJddEENSt9enable_ifIX16is_invocable_r_vIT_T0_DpT1_EES5_E4typeEOS6_DpOS7_.exit

if.then.i.i.i.i.i.i21.i.i.i:                      ; preds = %.noexc.i.i.i.i18.i.i.i
  %vtable.i.i.i.i.i.i22.i.i.i = load ptr, ptr %13, align 8, !tbaa !35
  %vfn.i.i.i.i.i.i23.i.i.i = getelementptr inbounds i8, ptr %vtable.i.i.i.i.i.i22.i.i.i, i64 24
  %17 = load ptr, ptr %vfn.i.i.i.i.i.i23.i.i.i, align 8
  invoke void %17(ptr noundef nonnull align 8 dereferenceable(16) %13)
          to label %_ZSt10__invoke_rIdRN8QuantLib12_GLOBAL__N_118integalpha_adapterEJddEENSt9enable_ifIX16is_invocable_r_vIT_T0_DpT1_EES5_E4typeEOS6_DpOS7_.exit unwind label %terminate.lpad.i.i.i.i17.i.i.i

terminate.lpad.i.i.i.i17.i.i.i:                   ; preds = %if.then.i.i.i.i.i.i21.i.i.i, %if.then.i.i.i.i.i14.i.i.i
  %18 = landingpad { ptr, i32 }
          catch ptr null
  %19 = extractvalue { ptr, i32 } %18, 0
  call void @__clang_call_terminate(ptr %19) #31
  unreachable

lpad4.i.i.i:                                      ; preds = %invoke.cont5.i.i.i, %cond.false.i6.i.i.i
  %20 = landingpad { ptr, i32 }
          cleanup
  call void @llvm.lifetime.end.p0(i64 40, ptr nonnull %ref.tmp3.i.i.i) #30
  call void @_ZN8QuantLib12InterestRateD2Ev(ptr noundef nonnull align 8 dereferenceable(40) %ref.tmp.i.i.i) #30
  call void @llvm.lifetime.end.p0(i64 40, ptr nonnull %ref.tmp.i.i.i) #30
  resume { ptr, i32 } %20

_ZSt10__invoke_rIdRN8QuantLib12_GLOBAL__N_118integalpha_adapterEJddEENSt9enable_ifIX16is_invocable_r_vIT_T0_DpT1_EES5_E4typeEOS6_DpOS7_.exit: ; preds = %_ZN8QuantLib12InterestRateD2Ev.exit.i.i.i, %if.then.i.i.i.i11.i.i.i, %.noexc.i.i.i.i18.i.i.i, %if.then.i.i.i.i.i.i21.i.i.i
  %sub.i.i.i = fsub double %2, %5
  call void @llvm.lifetime.end.p0(i64 40, ptr nonnull %ref.tmp.i.i.i) #30
  %sub13.i.i.i = fsub double %__args1.val, %__args.val
  %mul.i.i.i = fmul double %sub13.i.i.i, %sub.i.i.i
  ret double %mul.i.i.i
}